; Function Attrs: mustprogress uwtable
define dso_local void @_ZN12V3ThreadPool4waitEv(ptr noundef nonnull readonly align 8 captures(none) dereferenceable(224) %0) #3 align 2 personality ptr @__gxx_personality_v0 {
  %2 = getelementptr inbounds nuw i8, ptr %0, i64 176
  %3 = load atomic i64, ptr %2 acquire, align 8
  %.not8 = icmp eq i64 %3, 0
  br i1 %.not8, label %.critedge, label %.lr.ph

.lr.ph:                                           ; preds = %1
  %4 = getelementptr inbounds nuw i8, ptr %0, i64 168
  br label %5

5:                                                ; preds = %.lr.ph, %8
  %6 = load atomic i8, ptr %4 seq_cst, align 8
  %7 = trunc i8 %6 to i1
  br i1 %7, label %.critedge, label %8

8:                                                ; preds = %5
  %9 = tail call noundef i32 @sched_yield() #29
  %10 = load atomic i64, ptr %2 acquire, align 8
  %.not = icmp eq i64 %10, 0
  br i1 %.not, label %.critedge, label %5, !llvm.loop !58

.critedge:                                        ; preds = %5, %8, %1
  %11 = getelementptr inbounds nuw i8, ptr %0, i64 168
  %12 = load atomic i8, ptr %11 seq_cst, align 8
  %13 = trunc i8 %12 to i1
  br i1 %13, label %14, label %.loopexit

14:                                               ; preds = %.critedge
  %15 = load ptr, ptr %0, align 8, !tbaa !59
  %16 = getelementptr inbounds nuw i8, ptr %0, i64 8
  %17 = load ptr, ptr %16, align 8, !tbaa !59
  %.not710 = icmp eq ptr %15, %17
  br i1 %.not710, label %.loopexit, label %.lr.ph12

.lr.ph12:                                         ; preds = %14, %.lr.ph12
  %.sroa.04.011 = phi ptr [ %18, %.lr.ph12 ], [ %15, %14 ]
  tail call void @_ZNSt6thread4joinEv(ptr noundef nonnull align 8 dereferenceable(8) %.sroa.04.011)
  %18 = getelementptr inbounds nuw i8, ptr %.sroa.04.011, i64 8
  %.not7 = icmp eq ptr %18, %17
  br i1 %.not7, label %.loopexit, label %.lr.ph12

.loopexit:                                        ; preds = %.lr.ph12, %14, %.critedge
  ret void
}